; ModuleID = '6/137.c'
source_filename = "6/137.c"
target datalayout = "e-m:e-p270:32:32-p271:32:32-p272:64:64-i64:64-f80:128-n8:16:32:64-S128"
target triple = "x86_64-pc-linux-gnu"

@.str = private unnamed_addr constant [3 x i8] c"%d\00", align 1
@.str.1 = private unnamed_addr constant [6 x i8] c"%d %d\00", align 1
@.str.2 = private unnamed_addr constant [4 x i8] c"%d\0A\00", align 1

; Function Attrs: noinline nounwind uwtable
define dso_local i32 @main() #0 {
  %1 = alloca i32, align 4
  %2 = alloca i32, align 4
  %3 = alloca i32, align 4
  %4 = alloca i32, align 4
  %5 = alloca i32, align 4
  %6 = alloca i32, align 4
  %7 = alloca i32, align 4
  %8 = alloca i32*, align 8
  %9 = alloca i32*, align 8
  %10 = alloca i32, align 4
  store i32 0, i32* %1, align 4
  %11 = call i32 (i8*, ...) @__isoc99_scanf(i8* getelementptr inbounds ([3 x i8], [3 x i8]* @.str, i64 0, i64 0), i32* %2)
  %12 = load i32, i32* %2, align 4
  %13 = sext i32 %12 to i64
  %14 = mul i64 %13, 4
  %15 = call noalias i8* @malloc(i64 %14) #3
  %16 = bitcast i8* %15 to i32*
  store i32* %16, i32** %9, align 8
  store i32 0, i32* %4, align 4
  br label %17

17:                                               ; preds = %94, %0
  %18 = load i32, i32* %4, align 4
  %19 = load i32, i32* %2, align 4
  %20 = icmp slt i32 %18, %19
  br i1 %20, label %21, label %97

21:                                               ; preds = %17
  store i32 0, i32* %10, align 4
  %22 = call i32 (i8*, ...) @__isoc99_scanf(i8* getelementptr inbounds ([6 x i8], [6 x i8]* @.str.1, i64 0, i64 0), i32* %3, i32* %5)
  %23 = load i32, i32* %3, align 4
  %24 = load i32, i32* %5, align 4
  %25 = mul nsw i32 %23, %24
  %26 = sext i32 %25 to i64
  %27 = mul i64 %26, 4
  %28 = call noalias i8* @malloc(i64 %27) #3
  %29 = bitcast i8* %28 to i32*
  store i32* %29, i32** %8, align 8
  store i32 0, i32* %6, align 4
  br label %30

30:                                               ; preds = %83, %21
  %31 = load i32, i32* %6, align 4
  %32 = load i32, i32* %3, align 4
  %33 = icmp slt i32 %31, %32
  br i1 %33, label %34, label %86

34:                                               ; preds = %30
  store i32 0, i32* %7, align 4
  br label %35

35:                                               ; preds = %79, %34
  %36 = load i32, i32* %7, align 4
  %37 = load i32, i32* %5, align 4
  %38 = icmp slt i32 %36, %37
  br i1 %38, label %39, label %82

39:                                               ; preds = %35
  %40 = load i32*, i32** %8, align 8
  %41 = load i32, i32* %6, align 4
  %42 = load i32, i32* %5, align 4
  %43 = mul nsw i32 %41, %42
  %44 = sext i32 %43 to i64
  %45 = getelementptr inbounds i32, i32* %40, i64 %44
  %46 = load i32, i32* %7, align 4
  %47 = sext i32 %46 to i64
  %48 = getelementptr inbounds i32, i32* %45, i64 %47
  %49 = call i32 (i8*, ...) @__isoc99_scanf(i8* getelementptr inbounds ([3 x i8], [3 x i8]* @.str, i64 0, i64 0), i32* %48)
  %50 = load i32, i32* %6, align 4
  %51 = icmp eq i32 %50, 0
  br i1 %51, label %65, label %52

52:                                               ; preds = %39
  %53 = load i32, i32* %7, align 4
  %54 = icmp eq i32 %53, 0
  br i1 %54, label %65, label %55

55:                                               ; preds = %52
  %56 = load i32, i32* %6, align 4
  %57 = load i32, i32* %3, align 4
  %58 = sub nsw i32 %57, 1
  %59 = icmp eq i32 %56, %58
  br i1 %59, label %65, label %60

60:                                               ; preds = %55
  %61 = load i32, i32* %7, align 4
  %62 = load i32, i32* %5, align 4
  %63 = sub nsw i32 %62, 1
  %64 = icmp eq i32 %61, %63
  br i1 %64, label %65, label %78

65:                                               ; preds = %60, %55, %52, %39
  %66 = load i32, i32* %10, align 4
  %67 = load i32*, i32** %8, align 8
  %68 = load i32, i32* %6, align 4
  %69 = load i32, i32* %5, align 4
  %70 = mul nsw i32 %68, %69
  %71 = sext i32 %70 to i64
  %72 = getelementptr inbounds i32, i32* %67, i64 %71
  %73 = load i32, i32* %7, align 4
  %74 = sext i32 %73 to i64
  %75 = getelementptr inbounds i32, i32* %72, i64 %74
  %76 = load i32, i32* %75, align 4
  %77 = add nsw i32 %66, %76
  store i32 %77, i32* %10, align 4
  br label %78

78:                                               ; preds = %65, %60
  br label %79

79:                                               ; preds = %78
  %80 = load i32, i32* %7, align 4
  %81 = add nsw i32 %80, 1
  store i32 %81, i32* %7, align 4
  br label %35

82:                                               ; preds = %35
  br label %83

83:                                               ; preds = %82
  %84 = load i32, i32* %6, align 4
  %85 = add nsw i32 %84, 1
  store i32 %85, i32* %6, align 4
  br label %30

86:                                               ; preds = %30
  %87 = load i32, i32* %10, align 4
  %88 = load i32*, i32** %9, align 8
  %89 = load i32, i32* %4, align 4
  %90 = sext i32 %89 to i64
  %91 = getelementptr inbounds i32, i32* %88, i64 %90
  store i32 %87, i32* %91, align 4
  %92 = load i32*, i32** %8, align 8
  %93 = bitcast i32* %92 to i8*
  call void @free(i8* %93) #3
  br label %94

94:                                               ; preds = %86
  %95 = load i32, i32* %4, align 4
  %96 = add nsw i32 %95, 1
  store i32 %96, i32* %4, align 4
  br label %17

97:                                               ; preds = %17
  store i32 0, i32* %4, align 4
  br label %98

98:                                               ; preds = %109, %97
  %99 = load i32, i32* %4, align 4
  %100 = load i32, i32* %2, align 4
  %101 = icmp slt i32 %99, %100
  br i1 %101, label %102, label %112

102:                                              ; preds = %98
  %103 = load i32*, i32** %9, align 8
  %104 = load i32, i32* %4, align 4
  %105 = sext i32 %104 to i64
  %106 = getelementptr inbounds i32, i32* %103, i64 %105
  %107 = load i32, i32* %106, align 4
  %108 = call i32 (i8*, ...) @printf(i8* getelementptr inbounds ([4 x i8], [4 x i8]* @.str.2, i64 0, i64 0), i32 %107)
  br label %109

109:                                              ; preds = %102
  %110 = load i32, i32* %4, align 4
  %111 = add nsw i32 %110, 1
  store i32 %111, i32* %4, align 4
  br label %98

112:                                              ; preds = %98
  %113 = load i32*, i32** %9, align 8
  %114 = bitcast i32* %113 to i8*
  call void @free(i8* %114) #3
  %115 = load i32, i32* %1, align 4
  ret i32 %115
}

declare dso_local i32 @__isoc99_scanf(i8*, ...) #1

; Function Attrs: nounwind
declare dso_local noalias i8* @malloc(i64) #2

; Function Attrs: nounwind
declare dso_local void @free(i8*) #2

declare dso_local i32 @printf(i8*, ...) #1


!llvm.module.flags = !{!0}
!llvm.ident = !{!1}

!0 = !{i32 1, !"wchar_size", i32 4}
!1 = !{!"clang version 10.0.0-4ubuntu1 "}
